MPLINK 5.08, LINKER
Linker Map File - Created Sun Jan 31 14:23:15 2016

                                 Section Info
                  Section       Type    Address   Location Size(Bytes)
                ---------  ---------  ---------  ---------  ---------
                   .org_1       code   0x000000    program   0x000002
                   .cinit    romdata   0x000001    program   0x000004
                   .org_2       code   0x000004    program   0x000002
                   .org_0       code   0x000020    program   0x000010
                   .org_3       code   0x000040    program   0x000306
.config_8007_BUILD/DEFAULT/PRODUCTION/DMXPACK       code   0x008007    program   0x000002
.config_8008_BUILD/DEFAULT/PRODUCTION/DMXPACK       code   0x008008    program   0x000002



                              Program Memory Usage 
                               Start         End      
                           ---------   ---------      
                            0x000000    0x000002      
                            0x000004    0x000004      
                            0x000020    0x000027      
                            0x000040    0x0001c2      
                            0x008007    0x008008      
            401 out of 4103 program addresses used, program memory utilization is 9%



                              Symbols - Sorted by Name
                     Name    Address   Location    Storage File                     
                ---------  ---------  ---------  --------- ---------                
       CHANNEL_ADD_0_HIGH   0x000021    program     static /Users/bengm0ra/Projects/Home/DMX Lighting Board/DMX Lighting Board.X/dmxpack.asm
        CHANNEL_ADD_0_LOW   0x000020    program     static /Users/bengm0ra/Projects/Home/DMX Lighting Board/DMX Lighting Board.X/dmxpack.asm
       CHANNEL_ADD_1_HIGH   0x000023    program     static /Users/bengm0ra/Projects/Home/DMX Lighting Board/DMX Lighting Board.X/dmxpack.asm
        CHANNEL_ADD_1_LOW   0x000022    program     static /Users/bengm0ra/Projects/Home/DMX Lighting Board/DMX Lighting Board.X/dmxpack.asm
       CHANNEL_ADD_2_HIGH   0x000025    program     static /Users/bengm0ra/Projects/Home/DMX Lighting Board/DMX Lighting Board.X/dmxpack.asm
        CHANNEL_ADD_2_LOW   0x000024    program     static /Users/bengm0ra/Projects/Home/DMX Lighting Board/DMX Lighting Board.X/dmxpack.asm
       CHANNEL_ADD_3_HIGH   0x000027    program     static /Users/bengm0ra/Projects/Home/DMX Lighting Board/DMX Lighting Board.X/dmxpack.asm
        CHANNEL_ADD_3_LOW   0x000026    program     static /Users/bengm0ra/Projects/Home/DMX Lighting Board/DMX Lighting Board.X/dmxpack.asm
                     boot   0x0001ba    program     static /Users/bengm0ra/Projects/Home/DMX Lighting Board/DMX Lighting Board.X/dmxpack.asm
    channel_address_table   0x000020    program     static /Users/bengm0ra/Projects/Home/DMX Lighting Board/DMX Lighting Board.X/dmxpack.asm
          comparator_init   0x000094    program     static /Users/bengm0ra/Projects/Home/DMX Lighting Board/DMX Lighting Board.X/dmxpack.asm
           comparator_isr   0x0000b3    program     static /Users/bengm0ra/Projects/Home/DMX Lighting Board/DMX Lighting Board.X/dmxpack.asm
                 dmx_init   0x000057    program     static /Users/bengm0ra/Projects/Home/DMX Lighting Board/DMX Lighting Board.X/dmxpack.asm
                     main   0x0001c1    program     static /Users/bengm0ra/Projects/Home/DMX Lighting Board/DMX Lighting Board.X/dmxpack.asm
                 pwm_init   0x000190    program     static /Users/bengm0ra/Projects/Home/DMX Lighting Board/DMX Lighting Board.X/dmxpack.asm
                  pwm_off   0x000197    program     static /Users/bengm0ra/Projects/Home/DMX Lighting Board/DMX Lighting Board.X/dmxpack.asm
         pwm_set_channels   0x0001a1    program     static /Users/bengm0ra/Projects/Home/DMX Lighting Board/DMX Lighting Board.X/dmxpack.asm
      pwm_set_channels_ok   0x0001a5    program     static /Users/bengm0ra/Projects/Home/DMX Lighting Board/DMX Lighting Board.X/dmxpack.asm
                 pwm_sync   0x00019d    program     static /Users/bengm0ra/Projects/Home/DMX Lighting Board/DMX Lighting Board.X/dmxpack.asm
              system_halt   0x000056    program     static /Users/bengm0ra/Projects/Home/DMX Lighting Board/DMX Lighting Board.X/dmxpack.asm
              system_init   0x000040    program     static /Users/bengm0ra/Projects/Home/DMX Lighting Board/DMX Lighting Board.X/dmxpack.asm
               system_isr   0x000053    program     static /Users/bengm0ra/Projects/Home/DMX Lighting Board/DMX Lighting Board.X/dmxpack.asm
        system_isr_return   0x000055    program     static /Users/bengm0ra/Projects/Home/DMX Lighting Board/DMX Lighting Board.X/dmxpack.asm
             system_start   0x00004f    program     static /Users/bengm0ra/Projects/Home/DMX Lighting Board/DMX Lighting Board.X/dmxpack.asm
               timer_init   0x000152    program     static /Users/bengm0ra/Projects/Home/DMX Lighting Board/DMX Lighting Board.X/dmxpack.asm
                timer_isr   0x000169    program     static /Users/bengm0ra/Projects/Home/DMX Lighting Board/DMX Lighting Board.X/dmxpack.asm
         timer_isr_return   0x000182    program     static /Users/bengm0ra/Projects/Home/DMX Lighting Board/DMX Lighting Board.X/dmxpack.asm
         timer_isr_setpwm   0x000181    program     static /Users/bengm0ra/Projects/Home/DMX Lighting Board/DMX Lighting Board.X/dmxpack.asm
               timer_zero   0x000183    program     static /Users/bengm0ra/Projects/Home/DMX Lighting Board/DMX Lighting Board.X/dmxpack.asm
                uart_init   0x0000bc    program     static /Users/bengm0ra/Projects/Home/DMX Lighting Board/DMX Lighting Board.X/dmxpack.asm
                 uart_isr   0x0000cf    program     static /Users/bengm0ra/Projects/Home/DMX Lighting Board/DMX Lighting Board.X/dmxpack.asm
          uart_isr_return   0x000151    program     static /Users/bengm0ra/Projects/Home/DMX Lighting Board/DMX Lighting Board.X/dmxpack.asm
         uart_state_break   0x0000d7    program     static /Users/bengm0ra/Projects/Home/DMX Lighting Board/DMX Lighting Board.X/dmxpack.asm
 uart_state_break_discard   0x0000e1    program     static /Users/bengm0ra/Projects/Home/DMX Lighting Board/DMX Lighting Board.X/dmxpack.asm
    uart_state_check_data   0x0000ff    program     static /Users/bengm0ra/Projects/Home/DMX Lighting Board/DMX Lighting Board.X/dmxpack.asm
   uart_state_check_start   0x0000e3    program     static /Users/bengm0ra/Projects/Home/DMX Lighting Board/DMX Lighting Board.X/dmxpack.asm
          uart_state_data   0x000104    program     static /Users/bengm0ra/Projects/Home/DMX Lighting Board/DMX Lighting Board.X/dmxpack.asm
     uart_state_data_dmx1   0x000115    program     static /Users/bengm0ra/Projects/Home/DMX Lighting Board/DMX Lighting Board.X/dmxpack.asm
     uart_state_data_dmx2   0x000120    program     static /Users/bengm0ra/Projects/Home/DMX Lighting Board/DMX Lighting Board.X/dmxpack.asm
     uart_state_data_dmx3   0x00012b    program     static /Users/bengm0ra/Projects/Home/DMX Lighting Board/DMX Lighting Board.X/dmxpack.asm
    uart_state_data_frame   0x000149    program     static /Users/bengm0ra/Projects/Home/DMX Lighting Board/DMX Lighting Board.X/dmxpack.asm
      uart_state_data_inc   0x000136    program     static /Users/bengm0ra/Projects/Home/DMX Lighting Board/DMX Lighting Board.X/dmxpack.asm
    uart_state_data_noinc   0x00013a    program     static /Users/bengm0ra/Projects/Home/DMX Lighting Board/DMX Lighting Board.X/dmxpack.asm
         uart_state_error   0x00014d    program     static /Users/bengm0ra/Projects/Home/DMX Lighting Board/DMX Lighting Board.X/dmxpack.asm
         uart_state_start   0x0000e8    program     static /Users/bengm0ra/Projects/Home/DMX Lighting Board/DMX Lighting Board.X/dmxpack.asm
    uart_state_start_data   0x0000ed    program     static /Users/bengm0ra/Projects/Home/DMX Lighting Board/DMX Lighting Board.X/dmxpack.asm
uart_state_start_detected   0x0000f4    program     static /Users/bengm0ra/Projects/Home/DMX Lighting Board/DMX Lighting Board.X/dmxpack.asm



                              Symbols - Sorted by Address
                     Name    Address   Location    Storage File                     
                ---------  ---------  ---------  --------- ---------                
        CHANNEL_ADD_0_LOW   0x000020    program     static /Users/bengm0ra/Projects/Home/DMX Lighting Board/DMX Lighting Board.X/dmxpack.asm
    channel_address_table   0x000020    program     static /Users/bengm0ra/Projects/Home/DMX Lighting Board/DMX Lighting Board.X/dmxpack.asm
       CHANNEL_ADD_0_HIGH   0x000021    program     static /Users/bengm0ra/Projects/Home/DMX Lighting Board/DMX Lighting Board.X/dmxpack.asm
        CHANNEL_ADD_1_LOW   0x000022    program     static /Users/bengm0ra/Projects/Home/DMX Lighting Board/DMX Lighting Board.X/dmxpack.asm
       CHANNEL_ADD_1_HIGH   0x000023    program     static /Users/bengm0ra/Projects/Home/DMX Lighting Board/DMX Lighting Board.X/dmxpack.asm
        CHANNEL_ADD_2_LOW   0x000024    program     static /Users/bengm0ra/Projects/Home/DMX Lighting Board/DMX Lighting Board.X/dmxpack.asm
       CHANNEL_ADD_2_HIGH   0x000025    program     static /Users/bengm0ra/Projects/Home/DMX Lighting Board/DMX Lighting Board.X/dmxpack.asm
        CHANNEL_ADD_3_LOW   0x000026    program     static /Users/bengm0ra/Projects/Home/DMX Lighting Board/DMX Lighting Board.X/dmxpack.asm
       CHANNEL_ADD_3_HIGH   0x000027    program     static /Users/bengm0ra/Projects/Home/DMX Lighting Board/DMX Lighting Board.X/dmxpack.asm
              system_init   0x000040    program     static /Users/bengm0ra/Projects/Home/DMX Lighting Board/DMX Lighting Board.X/dmxpack.asm
             system_start   0x00004f    program     static /Users/bengm0ra/Projects/Home/DMX Lighting Board/DMX Lighting Board.X/dmxpack.asm
               system_isr   0x000053    program     static /Users/bengm0ra/Projects/Home/DMX Lighting Board/DMX Lighting Board.X/dmxpack.asm
        system_isr_return   0x000055    program     static /Users/bengm0ra/Projects/Home/DMX Lighting Board/DMX Lighting Board.X/dmxpack.asm
              system_halt   0x000056    program     static /Users/bengm0ra/Projects/Home/DMX Lighting Board/DMX Lighting Board.X/dmxpack.asm
                 dmx_init   0x000057    program     static /Users/bengm0ra/Projects/Home/DMX Lighting Board/DMX Lighting Board.X/dmxpack.asm
          comparator_init   0x000094    program     static /Users/bengm0ra/Projects/Home/DMX Lighting Board/DMX Lighting Board.X/dmxpack.asm
           comparator_isr   0x0000b3    program     static /Users/bengm0ra/Projects/Home/DMX Lighting Board/DMX Lighting Board.X/dmxpack.asm
                uart_init   0x0000bc    program     static /Users/bengm0ra/Projects/Home/DMX Lighting Board/DMX Lighting Board.X/dmxpack.asm
                 uart_isr   0x0000cf    program     static /Users/bengm0ra/Projects/Home/DMX Lighting Board/DMX Lighting Board.X/dmxpack.asm
         uart_state_break   0x0000d7    program     static /Users/bengm0ra/Projects/Home/DMX Lighting Board/DMX Lighting Board.X/dmxpack.asm
 uart_state_break_discard   0x0000e1    program     static /Users/bengm0ra/Projects/Home/DMX Lighting Board/DMX Lighting Board.X/dmxpack.asm
   uart_state_check_start   0x0000e3    program     static /Users/bengm0ra/Projects/Home/DMX Lighting Board/DMX Lighting Board.X/dmxpack.asm
         uart_state_start   0x0000e8    program     static /Users/bengm0ra/Projects/Home/DMX Lighting Board/DMX Lighting Board.X/dmxpack.asm
    uart_state_start_data   0x0000ed    program     static /Users/bengm0ra/Projects/Home/DMX Lighting Board/DMX Lighting Board.X/dmxpack.asm
uart_state_start_detected   0x0000f4    program     static /Users/bengm0ra/Projects/Home/DMX Lighting Board/DMX Lighting Board.X/dmxpack.asm
    uart_state_check_data   0x0000ff    program     static /Users/bengm0ra/Projects/Home/DMX Lighting Board/DMX Lighting Board.X/dmxpack.asm
          uart_state_data   0x000104    program     static /Users/bengm0ra/Projects/Home/DMX Lighting Board/DMX Lighting Board.X/dmxpack.asm
     uart_state_data_dmx1   0x000115    program     static /Users/bengm0ra/Projects/Home/DMX Lighting Board/DMX Lighting Board.X/dmxpack.asm
     uart_state_data_dmx2   0x000120    program     static /Users/bengm0ra/Projects/Home/DMX Lighting Board/DMX Lighting Board.X/dmxpack.asm
     uart_state_data_dmx3   0x00012b    program     static /Users/bengm0ra/Projects/Home/DMX Lighting Board/DMX Lighting Board.X/dmxpack.asm
      uart_state_data_inc   0x000136    program     static /Users/bengm0ra/Projects/Home/DMX Lighting Board/DMX Lighting Board.X/dmxpack.asm
    uart_state_data_noinc   0x00013a    program     static /Users/bengm0ra/Projects/Home/DMX Lighting Board/DMX Lighting Board.X/dmxpack.asm
    uart_state_data_frame   0x000149    program     static /Users/bengm0ra/Projects/Home/DMX Lighting Board/DMX Lighting Board.X/dmxpack.asm
         uart_state_error   0x00014d    program     static /Users/bengm0ra/Projects/Home/DMX Lighting Board/DMX Lighting Board.X/dmxpack.asm
          uart_isr_return   0x000151    program     static /Users/bengm0ra/Projects/Home/DMX Lighting Board/DMX Lighting Board.X/dmxpack.asm
               timer_init   0x000152    program     static /Users/bengm0ra/Projects/Home/DMX Lighting Board/DMX Lighting Board.X/dmxpack.asm
                timer_isr   0x000169    program     static /Users/bengm0ra/Projects/Home/DMX Lighting Board/DMX Lighting Board.X/dmxpack.asm
         timer_isr_setpwm   0x000181    program     static /Users/bengm0ra/Projects/Home/DMX Lighting Board/DMX Lighting Board.X/dmxpack.asm
         timer_isr_return   0x000182    program     static /Users/bengm0ra/Projects/Home/DMX Lighting Board/DMX Lighting Board.X/dmxpack.asm
               timer_zero   0x000183    program     static /Users/bengm0ra/Projects/Home/DMX Lighting Board/DMX Lighting Board.X/dmxpack.asm
                 pwm_init   0x000190    program     static /Users/bengm0ra/Projects/Home/DMX Lighting Board/DMX Lighting Board.X/dmxpack.asm
                  pwm_off   0x000197    program     static /Users/bengm0ra/Projects/Home/DMX Lighting Board/DMX Lighting Board.X/dmxpack.asm
                 pwm_sync   0x00019d    program     static /Users/bengm0ra/Projects/Home/DMX Lighting Board/DMX Lighting Board.X/dmxpack.asm
         pwm_set_channels   0x0001a1    program     static /Users/bengm0ra/Projects/Home/DMX Lighting Board/DMX Lighting Board.X/dmxpack.asm
      pwm_set_channels_ok   0x0001a5    program     static /Users/bengm0ra/Projects/Home/DMX Lighting Board/DMX Lighting Board.X/dmxpack.asm
                     boot   0x0001ba    program     static /Users/bengm0ra/Projects/Home/DMX Lighting Board/DMX Lighting Board.X/dmxpack.asm
                     main   0x0001c1    program     static /Users/bengm0ra/Projects/Home/DMX Lighting Board/DMX Lighting Board.X/dmxpack.asm


